target datalayout = "e-m:e-p270:32:32-p271:32:32-p272:64:64-i64:64-i128:128-f80:128-n8:16:32:64-S128"
target triple = "x86_64-pc-linux-gnu"

@.str.20 = private unnamed_addr constant [73 x i8] c"PaPulseAudio_BlockingInitRingBuffer: Not enough memory to handle request\00", align 1
@.str.21 = private unnamed_addr constant [71 x i8] c"PaPulseAudio_BlockingInitRingBuffer: Can't initialize input ringbuffer\00", align 1

; Function Attrs: nounwind uwtable
define i32 @PaPulseAudio_BlockingInitRingBuffer(ptr noundef %0, i32 noundef %1) #0 {
  %3 = alloca i32, align 4
  %4 = alloca ptr, align 8
  %5 = alloca i32, align 4
  %6 = alloca ptr, align 8
  %7 = alloca i32, align 4
  store ptr %0, ptr %4, align 8
  store i32 %1, ptr %5, align 4
  %8 = load i32, ptr %5, align 4
  %9 = sext i32 %8 to i64
  %10 = call noalias ptr @malloc(i64 noundef %9) #10
  store ptr %10, ptr %6, align 8
  store i32 0, ptr %7, align 4
  %11 = load ptr, ptr %6, align 8
  %12 = icmp eq ptr %11, null
  br i1 %12, label %13, label %14

13:                                               ; preds = %2
  call void @PaUtil_SetLastHostErrorInfo(i32 noundef 0, i64 noundef 0, ptr noundef @.str.20)
  store i32 -9992, ptr %3, align 4
  br label %29

14:                                               ; preds = %2
  %15 = load ptr, ptr %6, align 8
  %16 = load i32, ptr %5, align 4
  %17 = sext i32 %16 to i64
  call void @llvm.memset.p0.i64(ptr align 1 %15, i8 0, i64 %17, i1 false)
  %18 = load ptr, ptr %4, align 8
  %19 = load i32, ptr %5, align 4
  %20 = sext i32 %19 to i64
  %21 = load ptr, ptr %6, align 8
  %22 = call i64 @PaUtil_InitializeRingBuffer(ptr noundef %18, i64 noundef 1, i64 noundef %20, ptr noundef %21)
  %23 = trunc i64 %22 to i32
  store i32 %23, ptr %7, align 4
  %24 = load i32, ptr %7, align 4
  %25 = icmp slt i32 %24, 0
  br i1 %25, label %26, label %28

26:                                               ; preds = %14
  %27 = load ptr, ptr %6, align 8
  call void @free(ptr noundef %27) #8
  call void @PaUtil_SetLastHostErrorInfo(i32 noundef 0, i64 noundef 0, ptr noundef @.str.21)
  store i32 -10000, ptr %3, align 4
  br label %29

28:                                               ; preds = %14
  store i32 0, ptr %3, align 4
  br label %29

29:                                               ; preds = %28, %26, %13
  %30 = load i32, ptr %3, align 4
  ret i32 %30
}