; Function Attrs: nounwind uwtable
define range(i32 -10000, 1) i32 @PaPulseAudio_BlockingInitRingBuffer(ptr noundef %0, i32 noundef %1) local_unnamed_addr #0 {
  %3 = sext i32 %1 to i64
  %calloc = tail call ptr @calloc(i64 1, i64 %3)
  %4 = icmp eq ptr %calloc, null
  br i1 %4, label %.sink.split, label %5

5:                                                ; preds = %2
  %6 = tail call i64 @PaUtil_InitializeRingBuffer(ptr noundef %0, i64 noundef 1, i64 noundef %3, ptr noundef nonnull %calloc) #13
  %7 = and i64 %6, 2147483648
  %.not = icmp eq i64 %7, 0
  br i1 %.not, label %9, label %8

8:                                                ; preds = %5
  tail call void @free(ptr noundef nonnull %calloc) #13
  br label %.sink.split

.sink.split:                                      ; preds = %2, %8
  %.str.21.sink = phi ptr [ @.str.21, %8 ], [ @.str.20, %2 ]
  %.0.ph = phi i32 [ -10000, %8 ], [ -9992, %2 ]
  tail call void @PaUtil_SetLastHostErrorInfo(i32 noundef 0, i64 noundef 0, ptr noundef nonnull %.str.21.sink) #13
  br label %9

9:                                                ; preds = %.sink.split, %5
  %.0 = phi i32 [ 0, %5 ], [ %.0.ph, %.sink.split ]
  ret i32 %.0
}